
ref.elf:     file format elf64-littleriscv


Disassembly of section .text.init:

0000000080000000 <rvtest_entry_point>:
    80000000:	ff76e0b7          	lui	ra,0xff76e
    80000004:	f570809b          	addw	ra,ra,-169 # ffffffffff76df57 <_end+0xffffffff7f767d47>
    80000008:	01309093          	sll	ra,ra,0x13
    8000000c:	bb708093          	add	ra,ra,-1097
    80000010:	00e09093          	sll	ra,ra,0xe
    80000014:	ead08093          	add	ra,ra,-339
    80000018:	ff76e137          	lui	sp,0xff76e
    8000001c:	f571011b          	addw	sp,sp,-169 # ffffffffff76df57 <_end+0xffffffff7f767d47>
    80000020:	01311113          	sll	sp,sp,0x13
    80000024:	bb710113          	add	sp,sp,-1097
    80000028:	00d11113          	sll	sp,sp,0xd
    8000002c:	f5610113          	add	sp,sp,-170
    80000030:	000801b7          	lui	gp,0x80
    80000034:	bb71819b          	addw	gp,gp,-1097 # 7fbb7 <offset+0x7fbb7>
    80000038:	00d19193          	sll	gp,gp,0xd
    8000003c:	f5718193          	add	gp,gp,-169
    80000040:	01319193          	sll	gp,gp,0x13
    80000044:	bb718193          	add	gp,gp,-1097
    80000048:	00c19193          	sll	gp,gp,0xc
    8000004c:	fab18193          	add	gp,gp,-85
    80000050:	fff80237          	lui	tp,0xfff80
    80000054:	bb72021b          	addw	tp,tp,-1097 # fffffffffff7fbb7 <_end+0xffffffff7ff799a7>
    80000058:	00d21213          	sll	tp,tp,0xd
    8000005c:	f5720213          	add	tp,tp,-169 # ffffffffffffff57 <_end+0xffffffff7fff9d47>
    80000060:	01221213          	sll	tp,tp,0x12
    80000064:	ddb20213          	add	tp,tp,-549 # fffffffffffffddb <_end+0xffffffff7fff9bcb>
    80000068:	00c21213          	sll	tp,tp,0xc
    8000006c:	7d520213          	add	tp,tp,2005 # 7d5 <offset+0x7d5>
    80000070:	00000297          	auipc	t0,0x0
    80000074:	32028293          	add	t0,t0,800 # 80000390 <rvtest_code_begin>
    80000078:	00003317          	auipc	t1,0x3
    8000007c:	f8830313          	add	t1,t1,-120 # 80003000 <rvtest_data_begin>
    80000080:	ffb803b7          	lui	t2,0xffb80
    80000084:	bb73839b          	addw	t2,t2,-1097 # ffffffffffb7fbb7 <_end+0xffffffff7fb799a7>
    80000088:	00d39393          	sll	t2,t2,0xd
    8000008c:	f5738393          	add	t2,t2,-169
    80000090:	00f39393          	sll	t2,t2,0xf
    80000094:	fbb38393          	add	t2,t2,-69
    80000098:	00c39393          	sll	t2,t2,0xc
    8000009c:	6fa38393          	add	t2,t2,1786
    800000a0:	00b80437          	lui	s0,0xb80
    800000a4:	bb74041b          	addw	s0,s0,-1097 # b7fbb7 <offset+0xb7fbb7>
    800000a8:	00d41413          	sll	s0,s0,0xd
    800000ac:	f5740413          	add	s0,s0,-169
    800000b0:	00d41413          	sll	s0,s0,0xd
    800000b4:	fef40413          	add	s0,s0,-17
    800000b8:	00d41413          	sll	s0,s0,0xd
    800000bc:	b7d40413          	add	s0,s0,-1155
    800000c0:	feb804b7          	lui	s1,0xfeb80
    800000c4:	bb74849b          	addw	s1,s1,-1097 # fffffffffeb7fbb7 <_end+0xffffffff7eb799a7>
    800000c8:	00d49493          	sll	s1,s1,0xd
    800000cc:	f5748493          	add	s1,s1,-169
    800000d0:	00d49493          	sll	s1,s1,0xd
    800000d4:	fef48493          	add	s1,s1,-17
    800000d8:	00c49493          	sll	s1,s1,0xc
    800000dc:	dbe48493          	add	s1,s1,-578
    800000e0:	02b80537          	lui	a0,0x2b80
    800000e4:	bb75051b          	addw	a0,a0,-1097 # 2b7fbb7 <offset+0x2b7fbb7>
    800000e8:	00d51513          	sll	a0,a0,0xd
    800000ec:	f5750513          	add	a0,a0,-169
    800000f0:	00c51513          	sll	a0,a0,0xc
    800000f4:	ff750513          	add	a0,a0,-9
    800000f8:	00c51513          	sll	a0,a0,0xc
    800000fc:	6df50513          	add	a0,a0,1759
    80000100:	ff5705b7          	lui	a1,0xff570
    80000104:	f775859b          	addw	a1,a1,-137 # ffffffffff56ff77 <_end+0xffffffff7f569d67>
    80000108:	00d59593          	sll	a1,a1,0xd
    8000010c:	beb58593          	add	a1,a1,-1045
    80000110:	00c59593          	sll	a1,a1,0xc
    80000114:	dff58593          	add	a1,a1,-513
    80000118:	00e59593          	sll	a1,a1,0xe
    8000011c:	b6f58593          	add	a1,a1,-1169
    80000120:	ff570637          	lui	a2,0xff570
    80000124:	f776061b          	addw	a2,a2,-137 # ffffffffff56ff77 <_end+0xffffffff7f569d67>
    80000128:	00d61613          	sll	a2,a2,0xd
    8000012c:	beb60613          	add	a2,a2,-1045
    80000130:	00c61613          	sll	a2,a2,0xc
    80000134:	dff60613          	add	a2,a2,-513
    80000138:	00d61613          	sll	a2,a2,0xd
    8000013c:	db760613          	add	a2,a2,-585
    80000140:	ff5706b7          	lui	a3,0xff570
    80000144:	f776869b          	addw	a3,a3,-137 # ffffffffff56ff77 <_end+0xffffffff7f569d67>
    80000148:	00d69693          	sll	a3,a3,0xd
    8000014c:	beb68693          	add	a3,a3,-1045
    80000150:	00c69693          	sll	a3,a3,0xc
    80000154:	dff68693          	add	a3,a3,-513
    80000158:	00c69693          	sll	a3,a3,0xc
    8000015c:	edb68693          	add	a3,a3,-293
    80000160:	ff570737          	lui	a4,0xff570
    80000164:	f777071b          	addw	a4,a4,-137 # ffffffffff56ff77 <_end+0xffffffff7f569d67>
    80000168:	00c71713          	sll	a4,a4,0xc
    8000016c:	df570713          	add	a4,a4,-523
    80000170:	00c71713          	sll	a4,a4,0xc
    80000174:	6ff70713          	add	a4,a4,1791
    80000178:	00c71713          	sll	a4,a4,0xc
    8000017c:	76d70713          	add	a4,a4,1901
    80000180:	fab807b7          	lui	a5,0xfab80
    80000184:	bb77879b          	addw	a5,a5,-1097 # fffffffffab7fbb7 <_end+0xffffffff7ab799a7>
    80000188:	00d79793          	sll	a5,a5,0xd
    8000018c:	f5778793          	add	a5,a5,-169
    80000190:	01379793          	sll	a5,a5,0x13
    80000194:	bb678793          	add	a5,a5,-1098
    80000198:	00002837          	lui	a6,0x2
    8000019c:	f578081b          	addw	a6,a6,-169 # 1f57 <offset+0x1f57>
    800001a0:	01381813          	sll	a6,a6,0x13
    800001a4:	bb780813          	add	a6,a6,-1097
    800001a8:	00d81813          	sll	a6,a6,0xd
    800001ac:	f5780813          	add	a6,a6,-169
    800001b0:	01281813          	sll	a6,a6,0x12
    800001b4:	ddb80813          	add	a6,a6,-549
    800001b8:	ffffe8b7          	lui	a7,0xffffe
    800001bc:	f578889b          	addw	a7,a7,-169 # ffffffffffffdf57 <_end+0xffffffff7fff7d47>
    800001c0:	01389893          	sll	a7,a7,0x13
    800001c4:	bb788893          	add	a7,a7,-1097
    800001c8:	00d89893          	sll	a7,a7,0xd
    800001cc:	f5788893          	add	a7,a7,-169
    800001d0:	01189893          	sll	a7,a7,0x11
    800001d4:	eed88893          	add	a7,a7,-275
    800001d8:	ffffe937          	lui	s2,0xffffe
    800001dc:	f579091b          	addw	s2,s2,-169 # ffffffffffffdf57 <_end+0xffffffff7fff7d47>
    800001e0:	01391913          	sll	s2,s2,0x13
    800001e4:	bb790913          	add	s2,s2,-1097
    800001e8:	00d91913          	sll	s2,s2,0xd
    800001ec:	f5790913          	add	s2,s2,-169
    800001f0:	01091913          	sll	s2,s2,0x10
    800001f4:	f7690913          	add	s2,s2,-138
    800001f8:	0000e9b7          	lui	s3,0xe
    800001fc:	f579899b          	addw	s3,s3,-169 # df57 <offset+0xdf57>
    80000200:	01399993          	sll	s3,s3,0x13
    80000204:	bb798993          	add	s3,s3,-1097
    80000208:	00d99993          	sll	s3,s3,0xd
    8000020c:	f5798993          	add	s3,s3,-169
    80000210:	00f99993          	sll	s3,s3,0xf
    80000214:	fbb98993          	add	s3,s3,-69
    80000218:	fffeea37          	lui	s4,0xfffee
    8000021c:	f57a0a1b          	addw	s4,s4,-169 # fffffffffffedf57 <_end+0xffffffff7ffe7d47>
    80000220:	013a1a13          	sll	s4,s4,0x13
    80000224:	bb7a0a13          	add	s4,s4,-1097
    80000228:	00da1a13          	sll	s4,s4,0xd
    8000022c:	f57a0a13          	add	s4,s4,-169
    80000230:	00ea1a13          	sll	s4,s4,0xe
    80000234:	fdda0a13          	add	s4,s4,-35
    80000238:	fffeeab7          	lui	s5,0xfffee
    8000023c:	f57a8a9b          	addw	s5,s5,-169 # fffffffffffedf57 <_end+0xffffffff7ffe7d47>
    80000240:	013a9a93          	sll	s5,s5,0x13
    80000244:	bb7a8a93          	add	s5,s5,-1097
    80000248:	00da9a93          	sll	s5,s5,0xd
    8000024c:	f57a8a93          	add	s5,s5,-169
    80000250:	00da9a93          	sll	s5,s5,0xd
    80000254:	feea8a93          	add	s5,s5,-18
    80000258:	0006eb37          	lui	s6,0x6e
    8000025c:	f57b0b1b          	addw	s6,s6,-169 # 6df57 <offset+0x6df57>
    80000260:	013b1b13          	sll	s6,s6,0x13
    80000264:	bb7b0b13          	add	s6,s6,-1097
    80000268:	00db1b13          	sll	s6,s6,0xd
    8000026c:	f57b0b13          	add	s6,s6,-169
    80000270:	00cb1b13          	sll	s6,s6,0xc
    80000274:	ff7b0b13          	add	s6,s6,-9
    80000278:	fff6ebb7          	lui	s7,0xfff6e
    8000027c:	f57b8b9b          	addw	s7,s7,-169 # fffffffffff6df57 <_end+0xffffffff7ff67d47>
    80000280:	013b9b93          	sll	s7,s7,0x13
    80000284:	bb7b8b93          	add	s7,s7,-1097
    80000288:	00cb9b93          	sll	s7,s7,0xc
    8000028c:	fabb8b93          	add	s7,s7,-85
    80000290:	00cb9b93          	sll	s7,s7,0xc
    80000294:	7fbb8b93          	add	s7,s7,2043
    80000298:	fff6ec37          	lui	s8,0xfff6e
    8000029c:	f57c0c1b          	addw	s8,s8,-169 # fffffffffff6df57 <_end+0xffffffff7ff67d47>
    800002a0:	010c1c13          	sll	s8,s8,0x10
    800002a4:	f77c0c13          	add	s8,s8,-137
    800002a8:	00dc1c13          	sll	s8,s8,0xd
    800002ac:	bebc0c13          	add	s8,s8,-1045
    800002b0:	00dc1c13          	sll	s8,s8,0xd
    800002b4:	bfdc0c13          	add	s8,s8,-1027
    800002b8:	fff6ecb7          	lui	s9,0xfff6e
    800002bc:	f57c8c9b          	addw	s9,s9,-169 # fffffffffff6df57 <_end+0xffffffff7ff67d47>
    800002c0:	010c9c93          	sll	s9,s9,0x10
    800002c4:	f77c8c93          	add	s9,s9,-137
    800002c8:	00dc9c93          	sll	s9,s9,0xd
    800002cc:	bebc8c93          	add	s9,s9,-1045
    800002d0:	00cc9c93          	sll	s9,s9,0xc
    800002d4:	dfec8c93          	add	s9,s9,-514
    800002d8:	0076ed37          	lui	s10,0x76e
    800002dc:	f57d0d1b          	addw	s10,s10,-169 # 76df57 <offset+0x76df57>
    800002e0:	010d1d13          	sll	s10,s10,0x10
    800002e4:	f77d0d13          	add	s10,s10,-137
    800002e8:	00cd1d13          	sll	s10,s10,0xc
    800002ec:	df5d0d13          	add	s10,s10,-523
    800002f0:	00cd1d13          	sll	s10,s10,0xc
    800002f4:	6ffd0d13          	add	s10,s10,1791
    800002f8:	ff76edb7          	lui	s11,0xff76e
    800002fc:	f57d8d9b          	addw	s11,s11,-169 # ffffffffff76df57 <_end+0xffffffff7f767d47>
    80000300:	00fd9d93          	sll	s11,s11,0xf
    80000304:	fbbd8d93          	add	s11,s11,-69
    80000308:	00cd9d93          	sll	s11,s11,0xc
    8000030c:	6fbd8d93          	add	s11,s11,1787
    80000310:	00cd9d93          	sll	s11,s11,0xc
    80000314:	b7fd8d93          	add	s11,s11,-1153
    80000318:	ff76ee37          	lui	t3,0xff76e
    8000031c:	f57e0e1b          	addw	t3,t3,-169 # ffffffffff76df57 <_end+0xffffffff7f767d47>
    80000320:	00de1e13          	sll	t3,t3,0xd
    80000324:	fefe0e13          	add	t3,t3,-17
    80000328:	00de1e13          	sll	t3,t3,0xd
    8000032c:	b7de0e13          	add	t3,t3,-1155
    80000330:	00ce1e13          	sll	t3,t3,0xc
    80000334:	5bfe0e13          	add	t3,t3,1471
    80000338:	ff76eeb7          	lui	t4,0xff76e
    8000033c:	f57e8e9b          	addw	t4,t4,-169 # ffffffffff76df57 <_end+0xffffffff7f767d47>
    80000340:	00de9e93          	sll	t4,t4,0xd
    80000344:	fefe8e93          	add	t4,t4,-17
    80000348:	00ce9e93          	sll	t4,t4,0xc
    8000034c:	dbfe8e93          	add	t4,t4,-577
    80000350:	00ce9e93          	sll	t4,t4,0xc
    80000354:	adfe8e93          	add	t4,t4,-1313
    80000358:	ff76ef37          	lui	t5,0xff76e
    8000035c:	f57f0f1b          	addw	t5,t5,-169 # ffffffffff76df57 <_end+0xffffffff7f767d47>
    80000360:	00cf1f13          	sll	t5,t5,0xc
    80000364:	ff7f0f13          	add	t5,t5,-9
    80000368:	00cf1f13          	sll	t5,t5,0xc
    8000036c:	6dff0f13          	add	t5,t5,1759
    80000370:	00cf1f13          	sll	t5,t5,0xc
    80000374:	56ff0f13          	add	t5,t5,1391
    80000378:	ff76efb7          	lui	t6,0xff76e
    8000037c:	f57f8f9b          	addw	t6,t6,-169 # ffffffffff76df57 <_end+0xffffffff7f767d47>
    80000380:	013f9f93          	sll	t6,t6,0x13
    80000384:	bb7f8f93          	add	t6,t6,-1097
    80000388:	010f9f93          	sll	t6,t6,0x10
    8000038c:	ab7f8f93          	add	t6,t6,-1353

0000000080000390 <rvtest_code_begin>:
    80000390:	00005317          	auipc	t1,0x5
    80000394:	e8030313          	add	t1,t1,-384 # 80005210 <begin_signature>
    80000398:	00005817          	auipc	a6,0x5
    8000039c:	e7880813          	add	a6,a6,-392 # 80005210 <begin_signature>
    800003a0:	00004117          	auipc	sp,0x4
    800003a4:	46810113          	add	sp,sp,1128 # 80004808 <mscratch_top>
    800003a8:	34011073          	csrw	mscratch,sp
    800003ac:	00005117          	auipc	sp,0x5
    800003b0:	c5c10113          	add	sp,sp,-932 # 80005008 <sscratch_top>
    800003b4:	14011073          	csrw	sscratch,sp
    800003b8:	00004117          	auipc	sp,0x4
    800003bc:	c5010113          	add	sp,sp,-944 # 80004008 <mscratch_bottom>
    800003c0:	3a07d073          	csrw	pmpcfg0,15
    800003c4:	0010029b          	addw	t0,zero,1
    800003c8:	02029293          	sll	t0,t0,0x20
    800003cc:	fff28293          	add	t0,t0,-1
    800003d0:	3b029073          	csrw	pmpaddr0,t0
    800003d4:	00000097          	auipc	ra,0x0
    800003d8:	06c08093          	add	ra,ra,108 # 80000440 <trap_handler_m>
    800003dc:	0010e093          	or	ra,ra,1
    800003e0:	30509273          	csrrw	tp,mtvec,ra
    800003e4:	00000513          	li	a0,0
    800003e8:	00000593          	li	a1,0
    800003ec:	00000613          	li	a2,0
    800003f0:	02004eb7          	lui	t4,0x2004
    800003f4:	00100f1b          	addw	t5,zero,1
    800003f8:	020f1f13          	sll	t5,t5,0x20
    800003fc:	ffff0f13          	add	t5,t5,-1
    80000400:	01eeb023          	sd	t5,0(t4) # 2004000 <offset+0x2004000>
    80000404:	3f40006f          	j	800007f8 <trap_handler_end_m>
    80000408:	00000013          	nop
    8000040c:	00000013          	nop
    80000410:	00000013          	nop
    80000414:	00000013          	nop
    80000418:	00000013          	nop
    8000041c:	00000013          	nop
    80000420:	00000013          	nop
    80000424:	00000013          	nop
    80000428:	00000013          	nop
    8000042c:	00000013          	nop
    80000430:	00000013          	nop
    80000434:	00000013          	nop
    80000438:	00000013          	nop
    8000043c:	00000013          	nop

0000000080000440 <trap_handler_m>:
    80000440:	0300006f          	j	80000470 <trap_unvectored_m>
    80000444:	1900006f          	j	800005d4 <s_soft_vector_m>
    80000448:	08c0006f          	j	800004d4 <segfault_m>
    8000044c:	19c0006f          	j	800005e8 <m_soft_vector_m>
    80000450:	0840006f          	j	800004d4 <segfault_m>
    80000454:	1a80006f          	j	800005fc <s_time_vector_m>
    80000458:	07c0006f          	j	800004d4 <segfault_m>
    8000045c:	1b40006f          	j	80000610 <m_time_vector_m>
    80000460:	0740006f          	j	800004d4 <segfault_m>
    80000464:	1c00006f          	j	80000624 <s_ext_vector_m>
    80000468:	06c0006f          	j	800004d4 <segfault_m>
    8000046c:	1cc0006f          	j	80000638 <m_ext_vector_m>

0000000080000470 <trap_unvectored_m>:
    80000470:	34011173          	csrrw	sp,mscratch,sp

0000000080000474 <trap_stack_saved_m>:
    80000474:	fe113c23          	sd	ra,-8(sp)
    80000478:	fe513823          	sd	t0,-16(sp)
    8000047c:	fe713423          	sd	t2,-24(sp)
    80000480:	342020f3          	csrr	ra,mcause
    80000484:	00183023          	sd	ra,0(a6)
    80000488:	00830313          	add	t1,t1,8
    8000048c:	00880813          	add	a6,a6,8
    80000490:	342020f3          	csrr	ra,mcause
    80000494:	fff0029b          	addw	t0,zero,-1
    80000498:	03f29293          	sll	t0,t0,0x3f
    8000049c:	0012f2b3          	and	t0,t0,ra
    800004a0:	00029e63          	bnez	t0,800004bc <interrupt_handler_m>
    800004a4:	00000297          	auipc	t0,0x0
    800004a8:	25428293          	add	t0,t0,596 # 800006f8 <exception_vector_table_m>
    800004ac:	00309093          	sll	ra,ra,0x3
    800004b0:	001282b3          	add	t0,t0,ra
    800004b4:	0002b283          	ld	t0,0(t0)
    800004b8:	00028067          	jr	t0

00000000800004bc <interrupt_handler_m>:
    800004bc:	00000297          	auipc	t0,0x0
    800004c0:	2bc28293          	add	t0,t0,700 # 80000778 <interrupt_vector_table_m>
    800004c4:	00309093          	sll	ra,ra,0x3
    800004c8:	001282b3          	add	t0,t0,ra
    800004cc:	0002b283          	ld	t0,0(t0)
    800004d0:	00028067          	jr	t0

00000000800004d4 <segfault_m>:
    800004d4:	fe813383          	ld	t2,-24(sp)
    800004d8:	ff013283          	ld	t0,-16(sp)
    800004dc:	ff813083          	ld	ra,-8(sp)
    800004e0:	3210106f          	j	80002000 <terminate_test>

00000000800004e4 <trapreturn_m>:
    800004e4:	341020f3          	csrr	ra,mepc
    800004e8:	00408093          	add	ra,ra,4

00000000800004ec <trapreturn_specified_m>:
    800004ec:	04058e63          	beqz	a1,80000548 <trapreturn_finished_m>
    800004f0:	00000297          	auipc	t0,0x0
    800004f4:	2e828293          	add	t0,t0,744 # 800007d8 <trap_return_pagetype_table_m>
    800004f8:	00361613          	sll	a2,a2,0x3
    800004fc:	00c282b3          	add	t0,t0,a2
    80000500:	0002b603          	ld	a2,0(t0)
    80000504:	00100293          	li	t0,1
    80000508:	00c292b3          	sll	t0,t0,a2
    8000050c:	fff28293          	add	t0,t0,-1
    80000510:	ff813383          	ld	t2,-8(sp)
    80000514:	0072f3b3          	and	t2,t0,t2
    80000518:	00b383b3          	add	t2,t2,a1
    8000051c:	fe713c23          	sd	t2,-8(sp)
    80000520:	ff013383          	ld	t2,-16(sp)
    80000524:	0072f3b3          	and	t2,t0,t2
    80000528:	00b383b3          	add	t2,t2,a1
    8000052c:	fe713823          	sd	t2,-16(sp)
    80000530:	0062f3b3          	and	t2,t0,t1
    80000534:	00b38333          	add	t1,t2,a1
    80000538:	0012f0b3          	and	ra,t0,ra
    8000053c:	00b080b3          	add	ra,ra,a1
    80000540:	00000593          	li	a1,0
    80000544:	00000613          	li	a2,0

0000000080000548 <trapreturn_finished_m>:
    80000548:	34109073          	csrw	mepc,ra
    8000054c:	fe813383          	ld	t2,-24(sp)
    80000550:	ff013283          	ld	t0,-16(sp)
    80000554:	ff813083          	ld	ra,-8(sp)
    80000558:	34011173          	csrrw	sp,mscratch,sp
    8000055c:	30200073          	mret

0000000080000560 <ecallhandler_m>:
    80000560:	00200293          	li	t0,2
    80000564:	00550c63          	beq	a0,t0,8000057c <ecallhandler_changetomachinemode_m>
    80000568:	00300293          	li	t0,3
    8000056c:	02550063          	beq	a0,t0,8000058c <ecallhandler_changetosupervisormode_m>
    80000570:	00400293          	li	t0,4
    80000574:	02550863          	beq	a0,t0,800005a4 <ecallhandler_changetousermode_m>
    80000578:	f5dff06f          	j	800004d4 <segfault_m>

000000008000057c <ecallhandler_changetomachinemode_m>:
    8000057c:	000020b7          	lui	ra,0x2
    80000580:	8000809b          	addw	ra,ra,-2048 # 1800 <offset+0x1800>
    80000584:	3000a073          	csrs	mstatus,ra
    80000588:	f5dff06f          	j	800004e4 <trapreturn_m>

000000008000058c <ecallhandler_changetosupervisormode_m>:
    8000058c:	000010b7          	lui	ra,0x1
    80000590:	3000b073          	csrc	mstatus,ra
    80000594:	000010b7          	lui	ra,0x1
    80000598:	9000809b          	addw	ra,ra,-1792 # 900 <offset+0x900>
    8000059c:	3000a073          	csrs	mstatus,ra
    800005a0:	f45ff06f          	j	800004e4 <trapreturn_m>

00000000800005a4 <ecallhandler_changetousermode_m>:
    800005a4:	000020b7          	lui	ra,0x2
    800005a8:	9000809b          	addw	ra,ra,-1792 # 1900 <offset+0x1900>
    800005ac:	3000b073          	csrc	mstatus,ra
    800005b0:	f35ff06f          	j	800004e4 <trapreturn_m>

00000000800005b4 <instrpagefault_m>:
    800005b4:	ff813083          	ld	ra,-8(sp)
    800005b8:	f91ff06f          	j	80000548 <trapreturn_finished_m>

00000000800005bc <instrfault_m>:
    800005bc:	ff813083          	ld	ra,-8(sp)
    800005c0:	f89ff06f          	j	80000548 <trapreturn_finished_m>

00000000800005c4 <illegalinstr_m>:
    800005c4:	f21ff06f          	j	800004e4 <trapreturn_m>

00000000800005c8 <accessfault_m>:
    800005c8:	f1dff06f          	j	800004e4 <trapreturn_m>

00000000800005cc <addr_misaligned_m>:
    800005cc:	f19ff06f          	j	800004e4 <trapreturn_m>

00000000800005d0 <breakpt_m>:
    800005d0:	f15ff06f          	j	800004e4 <trapreturn_m>

00000000800005d4 <s_soft_vector_m>:
    800005d4:	34011173          	csrrw	sp,mscratch,sp
    800005d8:	fe513c23          	sd	t0,-8(sp)
    800005dc:	0007f2b7          	lui	t0,0x7f
    800005e0:	c012829b          	addw	t0,t0,-1023 # 7ec01 <offset+0x7ec01>
    800005e4:	0680006f          	j	8000064c <vectored_int_end_m>

00000000800005e8 <m_soft_vector_m>:
    800005e8:	34011173          	csrrw	sp,mscratch,sp
    800005ec:	fe513c23          	sd	t0,-8(sp)
    800005f0:	0007f2b7          	lui	t0,0x7f
    800005f4:	c032829b          	addw	t0,t0,-1021 # 7ec03 <offset+0x7ec03>
    800005f8:	0540006f          	j	8000064c <vectored_int_end_m>

00000000800005fc <s_time_vector_m>:
    800005fc:	34011173          	csrrw	sp,mscratch,sp
    80000600:	fe513c23          	sd	t0,-8(sp)
    80000604:	0007f2b7          	lui	t0,0x7f
    80000608:	c052829b          	addw	t0,t0,-1019 # 7ec05 <offset+0x7ec05>
    8000060c:	0400006f          	j	8000064c <vectored_int_end_m>

0000000080000610 <m_time_vector_m>:
    80000610:	34011173          	csrrw	sp,mscratch,sp
    80000614:	fe513c23          	sd	t0,-8(sp)
    80000618:	0007f2b7          	lui	t0,0x7f
    8000061c:	c072829b          	addw	t0,t0,-1017 # 7ec07 <offset+0x7ec07>
    80000620:	02c0006f          	j	8000064c <vectored_int_end_m>

0000000080000624 <s_ext_vector_m>:
    80000624:	34011173          	csrrw	sp,mscratch,sp
    80000628:	fe513c23          	sd	t0,-8(sp)
    8000062c:	0007f2b7          	lui	t0,0x7f
    80000630:	c092829b          	addw	t0,t0,-1015 # 7ec09 <offset+0x7ec09>
    80000634:	0180006f          	j	8000064c <vectored_int_end_m>

0000000080000638 <m_ext_vector_m>:
    80000638:	34011173          	csrrw	sp,mscratch,sp
    8000063c:	fe513c23          	sd	t0,-8(sp)
    80000640:	0007f2b7          	lui	t0,0x7f
    80000644:	c0b2829b          	addw	t0,t0,-1013 # 7ec0b <offset+0x7ec0b>
    80000648:	0040006f          	j	8000064c <vectored_int_end_m>

000000008000064c <vectored_int_end_m>:
    8000064c:	00583023          	sd	t0,0(a6)
    80000650:	00830313          	add	t1,t1,8
    80000654:	00880813          	add	a6,a6,8
    80000658:	ff813283          	ld	t0,-8(sp)
    8000065c:	e19ff06f          	j	80000474 <trap_stack_saved_m>

0000000080000660 <soft_interrupt_m>:
    80000660:	020002b7          	lui	t0,0x2000
    80000664:	0002a023          	sw	zero,0(t0) # 2000000 <offset+0x2000000>
    80000668:	34417073          	csrc	mip,2
    8000066c:	ff813083          	ld	ra,-8(sp)
    80000670:	ed9ff06f          	j	80000548 <trapreturn_finished_m>

0000000080000674 <time_interrupt_m>:
    80000674:	020042b7          	lui	t0,0x2004
    80000678:	0010039b          	addw	t2,zero,1
    8000067c:	02039393          	sll	t2,t2,0x20
    80000680:	fff38393          	add	t2,t2,-1
    80000684:	0072b023          	sd	t2,0(t0) # 2004000 <offset+0x2004000>
    80000688:	14d39073          	csrw	stimecmp,t2
    8000068c:	02000293          	li	t0,32
    80000690:	3442b073          	csrc	mip,t0
    80000694:	ff813083          	ld	ra,-8(sp)
    80000698:	eb1ff06f          	j	80000548 <trapreturn_finished_m>

000000008000069c <ext_interrupt_m>:
    8000069c:	10060e37          	lui	t3,0x10060
    800006a0:	000e2423          	sw	zero,8(t3) # 10060008 <offset+0x10060008>
    800006a4:	020e2423          	sw	zero,40(t3)
    800006a8:	0c200e37          	lui	t3,0xc200
    800006ac:	00700293          	li	t0,7
    800006b0:	005e2023          	sw	t0,0(t3) # c200000 <offset+0xc200000>
    800006b4:	0c201e37          	lui	t3,0xc201
    800006b8:	00700293          	li	t0,7
    800006bc:	005e2023          	sw	t0,0(t3) # c201000 <offset+0xc201000>
    800006c0:	0c000e37          	lui	t3,0xc000
    800006c4:	00000293          	li	t0,0
    800006c8:	005e2623          	sw	t0,12(t3) # c00000c <offset+0xc00000c>
    800006cc:	0c002e37          	lui	t3,0xc002
    800006d0:	00000293          	li	t0,0
    800006d4:	005e2023          	sw	t0,0(t3) # c002000 <offset+0xc002000>
    800006d8:	0c002e37          	lui	t3,0xc002
    800006dc:	080e0e1b          	addw	t3,t3,128 # c002080 <offset+0xc002080>
    800006e0:	00000e93          	li	t4,0
    800006e4:	01de2023          	sw	t4,0(t3)
    800006e8:	20000293          	li	t0,512
    800006ec:	3442b073          	csrc	mip,t0
    800006f0:	ff813083          	ld	ra,-8(sp)
    800006f4:	e55ff06f          	j	80000548 <trapreturn_finished_m>

00000000800006f8 <exception_vector_table_m>:
    800006f8:	05cc                	.insn	2, 0x05cc
    800006fa:	8000                	.insn	2, 0x8000
    800006fc:	0000                	.insn	2, 0x
    800006fe:	0000                	.insn	2, 0x
    80000700:	05bc                	.insn	2, 0x05bc
    80000702:	8000                	.insn	2, 0x8000
    80000704:	0000                	.insn	2, 0x
    80000706:	0000                	.insn	2, 0x
    80000708:	05c4                	.insn	2, 0x05c4
    8000070a:	8000                	.insn	2, 0x8000
    8000070c:	0000                	.insn	2, 0x
    8000070e:	0000                	.insn	2, 0x
    80000710:	05d0                	.insn	2, 0x05d0
    80000712:	8000                	.insn	2, 0x8000
    80000714:	0000                	.insn	2, 0x
    80000716:	0000                	.insn	2, 0x
    80000718:	05cc                	.insn	2, 0x05cc
    8000071a:	8000                	.insn	2, 0x8000
    8000071c:	0000                	.insn	2, 0x
    8000071e:	0000                	.insn	2, 0x
    80000720:	05c8                	.insn	2, 0x05c8
    80000722:	8000                	.insn	2, 0x8000
    80000724:	0000                	.insn	2, 0x
    80000726:	0000                	.insn	2, 0x
    80000728:	05cc                	.insn	2, 0x05cc
    8000072a:	8000                	.insn	2, 0x8000
    8000072c:	0000                	.insn	2, 0x
    8000072e:	0000                	.insn	2, 0x
    80000730:	05c8                	.insn	2, 0x05c8
    80000732:	8000                	.insn	2, 0x8000
    80000734:	0000                	.insn	2, 0x
    80000736:	0000                	.insn	2, 0x
    80000738:	0560                	.insn	2, 0x0560
    8000073a:	8000                	.insn	2, 0x8000
    8000073c:	0000                	.insn	2, 0x
    8000073e:	0000                	.insn	2, 0x
    80000740:	0560                	.insn	2, 0x0560
    80000742:	8000                	.insn	2, 0x8000
    80000744:	0000                	.insn	2, 0x
    80000746:	0000                	.insn	2, 0x
    80000748:	04d4                	.insn	2, 0x04d4
    8000074a:	8000                	.insn	2, 0x8000
    8000074c:	0000                	.insn	2, 0x
    8000074e:	0000                	.insn	2, 0x
    80000750:	0560                	.insn	2, 0x0560
    80000752:	8000                	.insn	2, 0x8000
    80000754:	0000                	.insn	2, 0x
    80000756:	0000                	.insn	2, 0x
    80000758:	05b4                	.insn	2, 0x05b4
    8000075a:	8000                	.insn	2, 0x8000
    8000075c:	0000                	.insn	2, 0x
    8000075e:	0000                	.insn	2, 0x
    80000760:	04e4                	.insn	2, 0x04e4
    80000762:	8000                	.insn	2, 0x8000
    80000764:	0000                	.insn	2, 0x
    80000766:	0000                	.insn	2, 0x
    80000768:	04d4                	.insn	2, 0x04d4
    8000076a:	8000                	.insn	2, 0x8000
    8000076c:	0000                	.insn	2, 0x
    8000076e:	0000                	.insn	2, 0x
    80000770:	04e4                	.insn	2, 0x04e4
    80000772:	8000                	.insn	2, 0x8000
    80000774:	0000                	.insn	2, 0x
	...

0000000080000778 <interrupt_vector_table_m>:
    80000778:	04d4                	.insn	2, 0x04d4
    8000077a:	8000                	.insn	2, 0x8000
    8000077c:	0000                	.insn	2, 0x
    8000077e:	0000                	.insn	2, 0x
    80000780:	0660                	.insn	2, 0x0660
    80000782:	8000                	.insn	2, 0x8000
    80000784:	0000                	.insn	2, 0x
    80000786:	0000                	.insn	2, 0x
    80000788:	04d4                	.insn	2, 0x04d4
    8000078a:	8000                	.insn	2, 0x8000
    8000078c:	0000                	.insn	2, 0x
    8000078e:	0000                	.insn	2, 0x
    80000790:	0660                	.insn	2, 0x0660
    80000792:	8000                	.insn	2, 0x8000
    80000794:	0000                	.insn	2, 0x
    80000796:	0000                	.insn	2, 0x
    80000798:	04d4                	.insn	2, 0x04d4
    8000079a:	8000                	.insn	2, 0x8000
    8000079c:	0000                	.insn	2, 0x
    8000079e:	0000                	.insn	2, 0x
    800007a0:	0674                	.insn	2, 0x0674
    800007a2:	8000                	.insn	2, 0x8000
    800007a4:	0000                	.insn	2, 0x
    800007a6:	0000                	.insn	2, 0x
    800007a8:	04d4                	.insn	2, 0x04d4
    800007aa:	8000                	.insn	2, 0x8000
    800007ac:	0000                	.insn	2, 0x
    800007ae:	0000                	.insn	2, 0x
    800007b0:	0674                	.insn	2, 0x0674
    800007b2:	8000                	.insn	2, 0x8000
    800007b4:	0000                	.insn	2, 0x
    800007b6:	0000                	.insn	2, 0x
    800007b8:	04d4                	.insn	2, 0x04d4
    800007ba:	8000                	.insn	2, 0x8000
    800007bc:	0000                	.insn	2, 0x
    800007be:	0000                	.insn	2, 0x
    800007c0:	069c                	.insn	2, 0x069c
    800007c2:	8000                	.insn	2, 0x8000
    800007c4:	0000                	.insn	2, 0x
    800007c6:	0000                	.insn	2, 0x
    800007c8:	04d4                	.insn	2, 0x04d4
    800007ca:	8000                	.insn	2, 0x8000
    800007cc:	0000                	.insn	2, 0x
    800007ce:	0000                	.insn	2, 0x
    800007d0:	069c                	.insn	2, 0x069c
    800007d2:	8000                	.insn	2, 0x8000
    800007d4:	0000                	.insn	2, 0x
	...

00000000800007d8 <trap_return_pagetype_table_m>:
    800007d8:	000c                	.insn	2, 0x000c
    800007da:	0000                	.insn	2, 0x
    800007dc:	0000                	.insn	2, 0x
    800007de:	0000                	.insn	2, 0x
    800007e0:	0015                	.insn	2, 0x0015
    800007e2:	0000                	.insn	2, 0x
    800007e4:	0000                	.insn	2, 0x
    800007e6:	0000                	.insn	2, 0x
    800007e8:	001e                	.insn	2, 0x001e
    800007ea:	0000                	.insn	2, 0x
    800007ec:	0000                	.insn	2, 0x
    800007ee:	0000                	.insn	2, 0x
    800007f0:	00000027          	.insn	4, 0x0027
    800007f4:	0000                	.insn	2, 0x
	...

00000000800007f8 <trap_handler_end_m>:
    800007f8:	00400513          	li	a0,4
    800007fc:	00000593          	li	a1,0
    80000800:	00000613          	li	a2,0
    80000804:	00000073          	ecall
    80000808:	00001f37          	lui	t5,0x1
    8000080c:	badf0f1b          	addw	t5,t5,-1107 # bad <offset+0xbad>
    80000810:	11100e93          	li	t4,273
    80000814:	b00e9073          	csrw	mcycle,t4
    80000818:	b0002f73          	csrr	t5,mcycle
    8000081c:	01e33023          	sd	t5,0(t1)
    80000820:	00830313          	add	t1,t1,8
    80000824:	00880813          	add	a6,a6,8
    80000828:	7d80106f          	j	80002000 <terminate_test>
	...

Disassembly of section .tohost:

0000000080001000 <tohost>:
	...

0000000080001100 <fromhost>:
	...

Disassembly of section .text:

0000000080002000 <terminate_test>:
    80002000:	00200513          	li	a0,2
    80002004:	00000073          	ecall
    80002008:	30521073          	csrw	mtvec,tp
    8000200c:	00000013          	nop

0000000080002010 <rvtest_code_end>:
    80002010:	00100093          	li	ra,1

0000000080002014 <write_tohost>:
    80002014:	fffff297          	auipc	t0,0xfffff
    80002018:	fe12a623          	sw	ra,-20(t0) # 80001000 <tohost>
    8000201c:	ff9ff06f          	j	80002014 <write_tohost>
	...
